target datalayout = "e-m:e-p270:32:32-p271:32:32-p272:64:64-i64:64-i128:128-f80:128-n8:16:32:64-S128"
target triple = "x86_64-pc-linux-gnu"

%struct.blip_conversation_entry_t = type { ptr, ptr }

@proto_blip = internal global i32 0, align 4

; Function Attrs: null_pointer_is_valid sspstrong uwtable
define internal ptr @get_blip_conversation(ptr noundef %0) #0 {
  %2 = alloca ptr, align 8
  %3 = alloca ptr, align 8
  %4 = alloca ptr, align 8
  store ptr %0, ptr %2, align 8
  call void @llvm.lifetime.start.p0(i64 8, ptr %3) #8
  %5 = load ptr, ptr %2, align 8
  %6 = call ptr @find_or_create_conversation(ptr noundef %5)
  store ptr %6, ptr %3, align 8
  call void @llvm.lifetime.start.p0(i64 8, ptr %4) #8
  %7 = load ptr, ptr %3, align 8
  %8 = load i32, ptr @proto_blip, align 4
  %9 = call ptr @conversation_get_proto_data(ptr noundef %7, i32 noundef %8)
  store ptr %9, ptr %4, align 8
  %10 = load ptr, ptr %4, align 8
  %11 = icmp eq ptr %10, null
  br i1 %11, label %12, label %26

12:                                               ; preds = %1
  %13 = call ptr @wmem_file_scope()
  %14 = call noalias ptr @wmem_alloc(ptr noundef %13, i64 noundef 16) #9
  store ptr %14, ptr %4, align 8
  %15 = call ptr @wmem_file_scope()
  %16 = call noalias ptr @wmem_map_new(ptr noundef %15, ptr noundef @g_str_hash, ptr noundef @g_str_equal)
  %17 = load ptr, ptr %4, align 8
  %18 = getelementptr inbounds nuw %struct.blip_conversation_entry_t, ptr %17, i32 0, i32 0
  store ptr %16, ptr %18, align 8
  %19 = call ptr @wmem_file_scope()
  %20 = call noalias ptr @wmem_map_new(ptr noundef %19, ptr noundef @g_direct_hash, ptr noundef @g_direct_equal)
  %21 = load ptr, ptr %4, align 8
  %22 = getelementptr inbounds nuw %struct.blip_conversation_entry_t, ptr %21, i32 0, i32 1
  store ptr %20, ptr %22, align 8
  %23 = load ptr, ptr %3, align 8
  %24 = load i32, ptr @proto_blip, align 4
  %25 = load ptr, ptr %4, align 8
  call void @conversation_add_proto_data(ptr noundef %23, i32 noundef %24, ptr noundef %25)
  br label %26

26:                                               ; preds = %12, %1
  %27 = load ptr, ptr %4, align 8
  call void @llvm.lifetime.end.p0(i64 8, ptr %4) #8
  call void @llvm.lifetime.end.p0(i64 8, ptr %3) #8
  ret ptr %27
}