; Function Attrs: null_pointer_is_valid sspstrong uwtable
define internal fastcc ptr @get_blip_conversation(ptr noundef %0) unnamed_addr #0 {
  %2 = tail call ptr @find_or_create_conversation(ptr noundef %0)
  %3 = load i32, ptr @proto_blip, align 4
  %4 = tail call ptr @conversation_get_proto_data(ptr noundef %2, i32 noundef %3)
  %5 = icmp eq ptr %4, null
  br i1 %5, label %6, label %15

6:                                                ; preds = %1
  %7 = tail call ptr @wmem_file_scope()
  %8 = tail call noalias dereferenceable_or_null(16) ptr @wmem_alloc(ptr noundef %7, i64 noundef 16) #9
  %9 = tail call ptr @wmem_file_scope()
  %10 = tail call noalias ptr @wmem_map_new(ptr noundef %9, ptr noundef nonnull @g_str_hash, ptr noundef nonnull @g_str_equal)
  store ptr %10, ptr %8, align 8
  %11 = tail call ptr @wmem_file_scope()
  %12 = tail call noalias ptr @wmem_map_new(ptr noundef %11, ptr noundef nonnull @g_direct_hash, ptr noundef nonnull @g_direct_equal)
  %13 = getelementptr inbounds nuw i8, ptr %8, i64 8
  store ptr %12, ptr %13, align 8
  %14 = load i32, ptr @proto_blip, align 4
  tail call void @conversation_add_proto_data(ptr noundef %2, i32 noundef %14, ptr noundef %8)
  br label %15

15:                                               ; preds = %6, %1
  %.0 = phi ptr [ %8, %6 ], [ %4, %1 ]
  ret ptr %.0
}